target datalayout = "e-m:e-p270:32:32-p271:32:32-p272:64:64-i64:64-i128:128-f80:128-n8:16:32:64-S128"
target triple = "x86_64-pc-linux-gnu"

%"class.llvm::pdb::LayoutItemBase" = type <{ ptr, ptr, ptr, %"class.llvm::BitVector", %"class.std::__cxx11::basic_string", i32, i32, i32, i8, [3 x i8] }>
%"class.llvm::BitVector" = type <{ %"class.llvm::SmallVector", i32, [4 x i8] }>
%"class.llvm::SmallVector" = type { %"class.llvm::SmallVectorImpl", %"struct.llvm::SmallVectorStorage" }
%"class.llvm::SmallVectorImpl" = type { %"class.llvm::SmallVectorTemplateBase" }
%"class.llvm::SmallVectorTemplateBase" = type { %"class.llvm::SmallVectorTemplateCommon" }
%"class.llvm::SmallVectorTemplateCommon" = type { %"class.llvm::SmallVectorBase" }
%"class.llvm::SmallVectorBase" = type { ptr, i32, i32 }
%"struct.llvm::SmallVectorStorage" = type { [48 x i8] }
%"class.std::__cxx11::basic_string" = type { %"struct.std::__cxx11::basic_string<char>::_Alloc_hider", i64, %union.anon }
%"struct.std::__cxx11::basic_string<char>::_Alloc_hider" = type { ptr }
%union.anon = type { i64, [8 x i8] }
%"class.llvm::pdb::LayoutItemBase.base" = type <{ ptr, ptr, ptr, %"class.llvm::BitVector", %"class.std::__cxx11::basic_string", i32, i32, i32, i8 }>
%"class.llvm::pdb::UDTLayoutBase" = type { %"class.llvm::pdb::LayoutItemBase.base", i32, %"class.std::vector", %"class.std::vector.13", %"class.std::vector.18", %"class.std::vector.23", %"class.std::vector.28", %"class.llvm::ArrayRef", %"class.llvm::ArrayRef", ptr, ptr }
%"class.std::vector" = type { %"struct.std::_Vector_base" }
%"struct.std::_Vector_base" = type { %"struct.std::_Vector_base<std::unique_ptr<llvm::pdb::PDBSymbol>, std::allocator<std::unique_ptr<llvm::pdb::PDBSymbol>>>::_Vector_impl" }
%"struct.std::_Vector_base<std::unique_ptr<llvm::pdb::PDBSymbol>, std::allocator<std::unique_ptr<llvm::pdb::PDBSymbol>>>::_Vector_impl" = type { %"struct.std::_Vector_base<std::unique_ptr<llvm::pdb::PDBSymbol>, std::allocator<std::unique_ptr<llvm::pdb::PDBSymbol>>>::_Vector_impl_data" }
%"struct.std::_Vector_base<std::unique_ptr<llvm::pdb::PDBSymbol>, std::allocator<std::unique_ptr<llvm::pdb::PDBSymbol>>>::_Vector_impl_data" = type { ptr, ptr, ptr }
%"class.std::vector.13" = type { %"struct.std::_Vector_base.14" }
%"struct.std::_Vector_base.14" = type { %"struct.std::_Vector_base<std::unique_ptr<llvm::pdb::PDBSymbolFunc>, std::allocator<std::unique_ptr<llvm::pdb::PDBSymbolFunc>>>::_Vector_impl" }
%"struct.std::_Vector_base<std::unique_ptr<llvm::pdb::PDBSymbolFunc>, std::allocator<std::unique_ptr<llvm::pdb::PDBSymbolFunc>>>::_Vector_impl" = type { %"struct.std::_Vector_base<std::unique_ptr<llvm::pdb::PDBSymbolFunc>, std::allocator<std::unique_ptr<llvm::pdb::PDBSymbolFunc>>>::_Vector_impl_data" }
%"struct.std::_Vector_base<std::unique_ptr<llvm::pdb::PDBSymbolFunc>, std::allocator<std::unique_ptr<llvm::pdb::PDBSymbolFunc>>>::_Vector_impl_data" = type { ptr, ptr, ptr }
%"class.std::vector.18" = type { %"struct.std::_Vector_base.19" }
%"struct.std::_Vector_base.19" = type { %"struct.std::_Vector_base<std::unique_ptr<llvm::pdb::LayoutItemBase>, std::allocator<std::unique_ptr<llvm::pdb::LayoutItemBase>>>::_Vector_impl" }
%"struct.std::_Vector_base<std::unique_ptr<llvm::pdb::LayoutItemBase>, std::allocator<std::unique_ptr<llvm::pdb::LayoutItemBase>>>::_Vector_impl" = type { %"struct.std::_Vector_base<std::unique_ptr<llvm::pdb::LayoutItemBase>, std::allocator<std::unique_ptr<llvm::pdb::LayoutItemBase>>>::_Vector_impl_data" }
%"struct.std::_Vector_base<std::unique_ptr<llvm::pdb::LayoutItemBase>, std::allocator<std::unique_ptr<llvm::pdb::LayoutItemBase>>>::_Vector_impl_data" = type { ptr, ptr, ptr }
%"class.std::vector.23" = type { %"struct.std::_Vector_base.24" }
%"struct.std::_Vector_base.24" = type { %"struct.std::_Vector_base<llvm::pdb::LayoutItemBase *, std::allocator<llvm::pdb::LayoutItemBase *>>::_Vector_impl" }
%"struct.std::_Vector_base<llvm::pdb::LayoutItemBase *, std::allocator<llvm::pdb::LayoutItemBase *>>::_Vector_impl" = type { %"struct.std::_Vector_base<llvm::pdb::LayoutItemBase *, std::allocator<llvm::pdb::LayoutItemBase *>>::_Vector_impl_data" }
%"struct.std::_Vector_base<llvm::pdb::LayoutItemBase *, std::allocator<llvm::pdb::LayoutItemBase *>>::_Vector_impl_data" = type { ptr, ptr, ptr }
%"class.std::vector.28" = type { %"struct.std::_Vector_base.29" }
%"struct.std::_Vector_base.29" = type { %"struct.std::_Vector_base<llvm::pdb::BaseClassLayout *, std::allocator<llvm::pdb::BaseClassLayout *>>::_Vector_impl" }
%"struct.std::_Vector_base<llvm::pdb::BaseClassLayout *, std::allocator<llvm::pdb::BaseClassLayout *>>::_Vector_impl" = type { %"struct.std::_Vector_base<llvm::pdb::BaseClassLayout *, std::allocator<llvm::pdb::BaseClassLayout *>>::_Vector_impl_data" }
%"struct.std::_Vector_base<llvm::pdb::BaseClassLayout *, std::allocator<llvm::pdb::BaseClassLayout *>>::_Vector_impl_data" = type { ptr, ptr, ptr }
%"class.llvm::ArrayRef" = type { ptr, i64 }
%"class.__gnu_cxx::__normal_iterator.162" = type { ptr }

; Function Attrs: mustprogress nounwind uwtable
define linkonce_odr hidden noundef nonnull align 8 dereferenceable(8) ptr @_ZNK9__gnu_cxx17__normal_iteratorIPKPN4llvm3pdb15BaseClassLayoutESt6vectorIS4_SaIS4_EEE4baseEv(ptr noundef nonnull align 8 dereferenceable(8) %0) #0 comdat align 2 {
  %2 = alloca ptr, align 8
  store ptr %0, ptr %2, align 8
  %3 = load ptr, ptr %2, align 8
  %4 = getelementptr inbounds nuw %"class.__gnu_cxx::__normal_iterator.162", ptr %3, i32 0, i32 0
  ret ptr %4
}

; Function Attrs: mustprogress nounwind uwtable
define linkonce_odr hidden void @_ZN9__gnu_cxx17__normal_iteratorIPKPN4llvm3pdb15BaseClassLayoutESt6vectorIS4_SaIS4_EEEC2ERKS6_(ptr noundef nonnull align 8 dereferenceable(8) %0, ptr noundef nonnull align 8 dereferenceable(8) %1) unnamed_addr #0 comdat align 2 {
  %3 = alloca ptr, align 8
  %4 = alloca ptr, align 8
  store ptr %0, ptr %3, align 8
  store ptr %1, ptr %4, align 8
  %5 = load ptr, ptr %3, align 8
  %6 = getelementptr inbounds nuw %"class.__gnu_cxx::__normal_iterator.162", ptr %5, i32 0, i32 0
  %7 = load ptr, ptr %4, align 8
  %8 = load ptr, ptr %7, align 8
  store ptr %8, ptr %6, align 8
  ret void
}

; Function Attrs: mustprogress nounwind uwtable
define linkonce_odr hidden noundef nonnull align 8 dereferenceable(8) ptr @_ZN9__gnu_cxx17__normal_iteratorIPKPN4llvm3pdb15BaseClassLayoutESt6vectorIS4_SaIS4_EEEppEv(ptr noundef nonnull align 8 dereferenceable(8) %0) #0 comdat align 2 {
  %2 = alloca ptr, align 8
  store ptr %0, ptr %2, align 8
  %3 = load ptr, ptr %2, align 8
  %4 = getelementptr inbounds nuw %"class.__gnu_cxx::__normal_iterator.162", ptr %3, i32 0, i32 0
  %5 = load ptr, ptr %4, align 8
  %6 = getelementptr inbounds ptr, ptr %5, i32 1
  store ptr %6, ptr %4, align 8
  ret ptr %3
}

; Function Attrs: mustprogress nounwind uwtable
define linkonce_odr hidden noundef nonnull align 8 dereferenceable(8) ptr @_ZNK9__gnu_cxx17__normal_iteratorIPKPN4llvm3pdb15BaseClassLayoutESt6vectorIS4_SaIS4_EEEdeEv(ptr noundef nonnull align 8 dereferenceable(8) %0) #0 comdat align 2 {
  %2 = alloca ptr, align 8
  store ptr %0, ptr %2, align 8
  %3 = load ptr, ptr %2, align 8
  %4 = getelementptr inbounds nuw %"class.__gnu_cxx::__normal_iterator.162", ptr %3, i32 0, i32 0
  %5 = load ptr, ptr %4, align 8
  ret ptr %5
}

; Function Attrs: mustprogress nounwind uwtable
define linkonce_odr noundef zeroext i1 @_ZN9__gnu_cxxneIPKPN4llvm3pdb15BaseClassLayoutESt6vectorIS4_SaIS4_EEEEbRKNS_17__normal_iteratorIT_T0_EESF_(ptr noundef nonnull align 8 dereferenceable(8) %0, ptr noundef nonnull align 8 dereferenceable(8) %1) #0 comdat {
  %3 = alloca ptr, align 8
  %4 = alloca ptr, align 8
  store ptr %0, ptr %3, align 8
  store ptr %1, ptr %4, align 8
  %5 = load ptr, ptr %3, align 8
  %6 = call noundef nonnull align 8 dereferenceable(8) ptr @_ZNK9__gnu_cxx17__normal_iteratorIPKPN4llvm3pdb15BaseClassLayoutESt6vectorIS4_SaIS4_EEE4baseEv(ptr noundef nonnull align 8 dereferenceable(8) %5) #10
  %7 = load ptr, ptr %6, align 8
  %8 = load ptr, ptr %4, align 8
  %9 = call noundef nonnull align 8 dereferenceable(8) ptr @_ZNK9__gnu_cxx17__normal_iteratorIPKPN4llvm3pdb15BaseClassLayoutESt6vectorIS4_SaIS4_EEE4baseEv(ptr noundef nonnull align 8 dereferenceable(8) %8) #10
  %10 = load ptr, ptr %9, align 8
  %11 = icmp ne ptr %7, %10
  ret i1 %11
}

; Function Attrs: mustprogress nounwind uwtable
define linkonce_odr hidden ptr @_ZNKSt6vectorIPN4llvm3pdb15BaseClassLayoutESaIS3_EE3endEv(ptr noundef nonnull align 8 dereferenceable(24) %0) #0 comdat align 2 {
  %2 = alloca %"class.__gnu_cxx::__normal_iterator.162", align 8
  %3 = alloca ptr, align 8
  store ptr %0, ptr %3, align 8
  %4 = load ptr, ptr %3, align 8
  %5 = getelementptr inbounds nuw %"struct.std::_Vector_base.29", ptr %4, i32 0, i32 0
  %6 = getelementptr inbounds nuw %"struct.std::_Vector_base<llvm::pdb::BaseClassLayout *, std::allocator<llvm::pdb::BaseClassLayout *>>::_Vector_impl_data", ptr %5, i32 0, i32 1
  call void @_ZN9__gnu_cxx17__normal_iteratorIPKPN4llvm3pdb15BaseClassLayoutESt6vectorIS4_SaIS4_EEEC2ERKS6_(ptr noundef nonnull align 8 dereferenceable(8) %2, ptr noundef nonnull align 8 dereferenceable(8) %6) #10
  %7 = getelementptr inbounds nuw %"class.__gnu_cxx::__normal_iterator.162", ptr %2, i32 0, i32 0
  %8 = load ptr, ptr %7, align 8
  ret ptr %8
}

; Function Attrs: mustprogress nounwind uwtable
define linkonce_odr hidden ptr @_ZNKSt6vectorIPN4llvm3pdb15BaseClassLayoutESaIS3_EE5beginEv(ptr noundef nonnull align 8 dereferenceable(24) %0) #0 comdat align 2 {
  %2 = alloca %"class.__gnu_cxx::__normal_iterator.162", align 8
  %3 = alloca ptr, align 8
  store ptr %0, ptr %3, align 8
  %4 = load ptr, ptr %3, align 8
  %5 = getelementptr inbounds nuw %"struct.std::_Vector_base.29", ptr %4, i32 0, i32 0
  %6 = getelementptr inbounds nuw %"struct.std::_Vector_base<llvm::pdb::BaseClassLayout *, std::allocator<llvm::pdb::BaseClassLayout *>>::_Vector_impl_data", ptr %5, i32 0, i32 0
  call void @_ZN9__gnu_cxx17__normal_iteratorIPKPN4llvm3pdb15BaseClassLayoutESt6vectorIS4_SaIS4_EEEC2ERKS6_(ptr noundef nonnull align 8 dereferenceable(8) %2, ptr noundef nonnull align 8 dereferenceable(8) %6) #10
  %7 = getelementptr inbounds nuw %"class.__gnu_cxx::__normal_iterator.162", ptr %2, i32 0, i32 0
  %8 = load ptr, ptr %7, align 8
  ret ptr %8
}

; Function Attrs: mustprogress nounwind uwtable
define linkonce_odr hidden noundef i32 @_ZNK4llvm3pdb14LayoutItemBase17getOffsetInParentEv(ptr noundef nonnull align 8 dereferenceable(141) %0) #0 comdat align 2 {
  %2 = alloca ptr, align 8
  store ptr %0, ptr %2, align 8
  %3 = load ptr, ptr %2, align 8
  %4 = getelementptr inbounds nuw %"class.llvm::pdb::LayoutItemBase", ptr %3, i32 0, i32 5
  %5 = load i32, ptr %4, align 8
  ret i32 %5
}

; Function Attrs: mustprogress nounwind uwtable
define dso_local noundef zeroext i1 @_ZNK4llvm3pdb13UDTLayoutBase16hasVBPtrAtOffsetEj(ptr noundef nonnull align 8 dereferenceable(320) %0, i32 noundef %1) #0 align 2 {
  %3 = alloca i1, align 1
  %4 = alloca ptr, align 8
  %5 = alloca i32, align 4
  %6 = alloca ptr, align 8
  %7 = alloca %"class.__gnu_cxx::__normal_iterator.162", align 8
  %8 = alloca %"class.__gnu_cxx::__normal_iterator.162", align 8
  %9 = alloca ptr, align 8
  store ptr %0, ptr %4, align 8
  store i32 %1, ptr %5, align 4
  %10 = load ptr, ptr %4, align 8
  %11 = getelementptr inbounds nuw %"class.llvm::pdb::UDTLayoutBase", ptr %10, i32 0, i32 10
  %12 = load ptr, ptr %11, align 8
  %13 = icmp ne ptr %12, null
  br i1 %13, label %14, label %21

14:                                               ; preds = %2
  %15 = getelementptr inbounds nuw %"class.llvm::pdb::UDTLayoutBase", ptr %10, i32 0, i32 10
  %16 = load ptr, ptr %15, align 8
  %17 = call noundef i32 @_ZNK4llvm3pdb14LayoutItemBase17getOffsetInParentEv(ptr noundef nonnull align 8 dereferenceable(141) %16)
  %18 = load i32, ptr %5, align 4
  %19 = icmp eq i32 %17, %18
  br i1 %19, label %20, label %21

20:                                               ; preds = %14
  store i1 true, ptr %3, align 1
  br label %45

21:                                               ; preds = %14, %2
  %22 = getelementptr inbounds nuw %"class.llvm::pdb::UDTLayoutBase", ptr %10, i32 0, i32 6
  store ptr %22, ptr %6, align 8
  %23 = load ptr, ptr %6, align 8
  %24 = call ptr @_ZNKSt6vectorIPN4llvm3pdb15BaseClassLayoutESaIS3_EE5beginEv(ptr noundef nonnull align 8 dereferenceable(24) %23) #10
  %25 = getelementptr inbounds nuw %"class.__gnu_cxx::__normal_iterator.162", ptr %7, i32 0, i32 0
  store ptr %24, ptr %25, align 8
  %26 = load ptr, ptr %6, align 8
  %27 = call ptr @_ZNKSt6vectorIPN4llvm3pdb15BaseClassLayoutESaIS3_EE3endEv(ptr noundef nonnull align 8 dereferenceable(24) %26) #10
  %28 = getelementptr inbounds nuw %"class.__gnu_cxx::__normal_iterator.162", ptr %8, i32 0, i32 0
  store ptr %27, ptr %28, align 8
  br label %29

29:                                               ; preds = %42, %21
  %30 = call noundef zeroext i1 @_ZN9__gnu_cxxneIPKPN4llvm3pdb15BaseClassLayoutESt6vectorIS4_SaIS4_EEEEbRKNS_17__normal_iteratorIT_T0_EESF_(ptr noundef nonnull align 8 dereferenceable(8) %7, ptr noundef nonnull align 8 dereferenceable(8) %8) #10
  br i1 %30, label %31, label %44

31:                                               ; preds = %29
  %32 = call noundef nonnull align 8 dereferenceable(8) ptr @_ZNK9__gnu_cxx17__normal_iteratorIPKPN4llvm3pdb15BaseClassLayoutESt6vectorIS4_SaIS4_EEEdeEv(ptr noundef nonnull align 8 dereferenceable(8) %7) #10
  %33 = load ptr, ptr %32, align 8
  store ptr %33, ptr %9, align 8
  %34 = load ptr, ptr %9, align 8
  %35 = load i32, ptr %5, align 4
  %36 = load ptr, ptr %9, align 8
  %37 = call noundef i32 @_ZNK4llvm3pdb14LayoutItemBase17getOffsetInParentEv(ptr noundef nonnull align 8 dereferenceable(141) %36)
  %38 = sub i32 %35, %37
  %39 = call noundef zeroext i1 @_ZNK4llvm3pdb13UDTLayoutBase16hasVBPtrAtOffsetEj(ptr noundef nonnull align 8 dereferenceable(320) %34, i32 noundef %38)
  br i1 %39, label %40, label %41

40:                                               ; preds = %31
  store i1 true, ptr %3, align 1
  br label %45

41:                                               ; preds = %31
  br label %42

42:                                               ; preds = %41
  %43 = call noundef nonnull align 8 dereferenceable(8) ptr @_ZN9__gnu_cxx17__normal_iteratorIPKPN4llvm3pdb15BaseClassLayoutESt6vectorIS4_SaIS4_EEEppEv(ptr noundef nonnull align 8 dereferenceable(8) %7) #10
  br label %29

44:                                               ; preds = %29
  store i1 false, ptr %3, align 1
  br label %45

45:                                               ; preds = %44, %40, %20
  %46 = load i1, ptr %3, align 1
  ret i1 %46
}