; Function Attrs: mustprogress nofree nosync nounwind willreturn memory(read, inaccessiblemem: none) uwtable
define dso_local noundef zeroext i1 @_ZNK4llvm3pdb13UDTLayoutBase16hasVBPtrAtOffsetEj(ptr nocapture noundef nonnull readonly align 8 dereferenceable(320) %0, i32 noundef %1) local_unnamed_addr #6 align 2 {
  %3 = getelementptr inbounds nuw i8, ptr %0, i64 312
  %4 = load ptr, ptr %3, align 8
  %.not = icmp eq ptr %4, null
  br i1 %.not, label %9, label %5

5:                                                ; preds = %2
  %6 = getelementptr inbounds nuw i8, ptr %4, i64 128
  %7 = load i32, ptr %6, align 8
  %8 = icmp eq i32 %7, %1
  br i1 %8, label %.loopexit, label %9

9:                                                ; preds = %5, %2
  %10 = getelementptr inbounds nuw i8, ptr %0, i64 248
  %11 = load ptr, ptr %10, align 8
  %12 = getelementptr inbounds i8, ptr %0, i64 256
  %13 = load ptr, ptr %12, align 8
  %.not1112 = icmp eq ptr %11, %13
  br i1 %.not1112, label %.loopexit, label %.lr.ph

.lr.ph:                                           ; preds = %9, %.lr.ph
  %.sroa.08.013 = phi ptr [ %19, %.lr.ph ], [ %11, %9 ]
  %14 = load ptr, ptr %.sroa.08.013, align 8
  %15 = getelementptr inbounds nuw i8, ptr %14, i64 128
  %16 = load i32, ptr %15, align 8
  %17 = sub i32 %1, %16
  %18 = tail call noundef zeroext i1 @_ZNK4llvm3pdb13UDTLayoutBase16hasVBPtrAtOffsetEj(ptr noundef nonnull align 8 dereferenceable(320) %14, i32 noundef %17)
  %19 = getelementptr inbounds i8, ptr %.sroa.08.013, i64 8
  %.not11 = icmp eq ptr %19, %13
  %or.cond = select i1 %18, i1 true, i1 %.not11
  br i1 %or.cond, label %.loopexit, label %.lr.ph

.loopexit:                                        ; preds = %.lr.ph, %9, %5
  %.0 = phi i1 [ true, %5 ], [ false, %9 ], [ %18, %.lr.ph ]
  ret i1 %.0
}